; ModuleID = 'source-C-CXX/59/91.c'
source_filename = "source-C-CXX/59/91.c"
target datalayout = "e-m:e-p270:32:32-p271:32:32-p272:64:64-i64:64-f80:128-n8:16:32:64-S128"
target triple = "x86_64-pc-linux-gnu"

@.str = private unnamed_addr constant [3 x i8] c"%d\00", align 1
@.str.1 = private unnamed_addr constant [6 x i8] c"empty\00", align 1
@.str.2 = private unnamed_addr constant [7 x i8] c"%d %d\0A\00", align 1

; Function Attrs: nofree nounwind sspstrong uwtable
define dso_local i32 @prime(i32 %0) local_unnamed_addr #0 {
  %2 = sitofp i32 %0 to double
  %3 = tail call double @sqrt(double %2) #4
  %4 = fcmp ult double %3, 2.000000e+00
  br i1 %4, label %14, label %9

5:                                                ; preds = %9
  %6 = sitofp i32 %13 to double
  %7 = tail call double @sqrt(double %2) #4
  %8 = fcmp ult double %7, %6
  br i1 %8, label %14, label %9, !llvm.loop !5

9:                                                ; preds = %1, %5
  %10 = phi i32 [ %13, %5 ], [ 2, %1 ]
  %11 = srem i32 %0, %10
  %12 = icmp eq i32 %11, 0
  %13 = add nuw nsw i32 %10, 1
  br i1 %12, label %18, label %5

14:                                               ; preds = %5, %1
  %15 = icmp slt i32 %0, 0
  br i1 %15, label %16, label %18, !prof !7

16:                                               ; preds = %14
  %17 = tail call double @sqrt(double %2) #4
  br label %18

18:                                               ; preds = %9, %16, %14
  %19 = phi i32 [ 1, %14 ], [ 1, %16 ], [ 0, %9 ]
  ret i32 %19
}

; Function Attrs: argmemonly mustprogress nofree nosync nounwind willreturn
declare void @llvm.lifetime.start.p0i8(i64 immarg, i8* nocapture) #1

; Function Attrs: mustprogress nofree nounwind willreturn
declare double @sqrt(double) local_unnamed_addr #2

; Function Attrs: argmemonly mustprogress nofree nosync nounwind willreturn
declare void @llvm.lifetime.end.p0i8(i64 immarg, i8* nocapture) #1

; Function Attrs: nofree nounwind sspstrong uwtable
define dso_local void @main() local_unnamed_addr #0 {
  %1 = alloca i32, align 4
  %2 = bitcast i32* %1 to i8*
  call void @llvm.lifetime.start.p0i8(i64 4, i8* nonnull %2) #4
  %3 = call i32 (i8*, ...) @__isoc99_scanf(i8* getelementptr inbounds ([3 x i8], [3 x i8]* @.str, i64 0, i64 0), i32* nonnull %1)
  %4 = load i32, i32* %1, align 4, !tbaa !8
  %5 = icmp slt i32 %4, 5
  br i1 %5, label %6, label %8

6:                                                ; preds = %0
  %7 = call i32 (i8*, ...) @printf(i8* nonnull dereferenceable(1) getelementptr inbounds ([6 x i8], [6 x i8]* @.str.1, i64 0, i64 0))
  br label %45

8:                                                ; preds = %0, %41
  %9 = phi i32 [ %42, %41 ], [ 2, %0 ]
  %10 = add nuw nsw i32 %9, 2
  %11 = sitofp i32 %9 to double
  %12 = call double @sqrt(double %11) #4
  %13 = fcmp ult double %12, 2.000000e+00
  br i1 %13, label %23, label %18

14:                                               ; preds = %18
  %15 = sitofp i32 %22 to double
  %16 = call double @sqrt(double %11) #4
  %17 = fcmp ult double %16, %15
  br i1 %17, label %23, label %18, !llvm.loop !5

18:                                               ; preds = %8, %14
  %19 = phi i32 [ %22, %14 ], [ 2, %8 ]
  %20 = urem i32 %9, %19
  %21 = icmp eq i32 %20, 0
  %22 = add nuw nsw i32 %19, 1
  br i1 %21, label %41, label %14

23:                                               ; preds = %14, %8
  %24 = sitofp i32 %10 to double
  %25 = call double @sqrt(double %24) #4
  %26 = fcmp ult double %25, 2.000000e+00
  br i1 %26, label %36, label %31

27:                                               ; preds = %31
  %28 = sitofp i32 %35 to double
  %29 = call double @sqrt(double %24) #4
  %30 = fcmp ult double %29, %28
  br i1 %30, label %36, label %31, !llvm.loop !5

31:                                               ; preds = %23, %27
  %32 = phi i32 [ %35, %27 ], [ 2, %23 ]
  %33 = urem i32 %10, %32
  %34 = icmp eq i32 %33, 0
  %35 = add nuw nsw i32 %32, 1
  br i1 %34, label %41, label %27

36:                                               ; preds = %27, %23
  %37 = load i32, i32* %1, align 4
  %38 = icmp sgt i32 %10, %37
  br i1 %38, label %41, label %39

39:                                               ; preds = %36
  %40 = call i32 (i8*, ...) @printf(i8* nonnull dereferenceable(1) getelementptr inbounds ([7 x i8], [7 x i8]* @.str.2, i64 0, i64 0), i32 %9, i32 %10)
  br label %41

41:                                               ; preds = %18, %31, %36, %39
  %42 = add nuw nsw i32 %9, 1
  %43 = load i32, i32* %1, align 4, !tbaa !8
  %44 = icmp slt i32 %42, %43
  br i1 %44, label %8, label %45, !llvm.loop !12

45:                                               ; preds = %41, %6
  call void @llvm.lifetime.end.p0i8(i64 4, i8* nonnull %2) #4
  ret void
}

; Function Attrs: nofree nounwind
declare noundef i32 @__isoc99_scanf(i8* nocapture noundef readonly, ...) local_unnamed_addr #3

; Function Attrs: nofree nounwind
declare noundef i32 @printf(i8* nocapture noundef readonly, ...) local_unnamed_addr #3


!llvm.module.flags = !{!0, !1, !2, !3}
!llvm.ident = !{!4}

!0 = !{i32 1, !"wchar_size", i32 4}
!1 = !{i32 7, !"PIC Level", i32 2}
!2 = !{i32 7, !"PIE Level", i32 2}
!3 = !{i32 7, !"uwtable", i32 1}
!4 = !{!"clang version 13.0.0"}
!5 = distinct !{!5, !6}
!6 = !{!"llvm.loop.mustprogress"}
!7 = !{!"branch_weights", i32 1, i32 2000}
!8 = !{!9, !9, i64 0}
!9 = !{!"int", !10, i64 0}
!10 = !{!"omnipotent char", !11, i64 0}
!11 = !{!"Simple C/C++ TBAA"}
!12 = distinct !{!12, !6}
